; Function Attrs: nounwind uwtable
define hidden noundef zeroext i1 @SDL_ShouldInit_REAL(ptr noundef %0) local_unnamed_addr #0 {
  %2 = tail call i32 @SDL_GetAtomicInt_REAL(ptr noundef %0) #6
  %.not6.not = icmp eq i32 %2, 2
  br i1 %.not6.not, label %.loopexit, label %.lr.ph

.lr.ph:                                           ; preds = %1, %7
  %3 = tail call zeroext i1 @SDL_CompareAndSwapAtomicInt_REAL(ptr noundef %0, i32 noundef 0, i32 noundef 1) #6
  br i1 %3, label %4, label %7

4:                                                ; preds = %.lr.ph
  %5 = tail call i64 @SDL_GetCurrentThreadID_REAL() #6
  %6 = getelementptr inbounds nuw i8, ptr %0, i64 8
  store i64 %5, ptr %6, align 8
  br label %.loopexit

7:                                                ; preds = %.lr.ph
  tail call void @SDL_Delay_REAL(i32 noundef 1) #6
  %8 = tail call i32 @SDL_GetAtomicInt_REAL(ptr noundef %0) #6
  %.not.not = icmp eq i32 %8, 2
  br i1 %.not.not, label %.loopexit, label %.lr.ph, !llvm.loop !8

.loopexit:                                        ; preds = %7, %1, %4
  %.not5 = phi i1 [ true, %4 ], [ false, %1 ], [ false, %7 ]
  ret i1 %.not5
}